; Function Attrs: mustprogress uwtable
define dso_local noundef zeroext i1 @_ZNK4Luau5Scope16shouldWarnGlobalENSt7__cxx1112basic_stringIcSt11char_traitsIcESaIcEEE(ptr noundef nonnull align 8 dereferenceable(944) %0, ptr noundef %1) local_unnamed_addr #6 align 2 {
  br label %3

3:                                                ; preds = %2, %6
  %.058 = phi ptr [ %0, %2 ], [ %7, %6 ]
  %4 = getelementptr inbounds nuw i8, ptr %.058, i64 736
  %5 = tail call noundef ptr @_ZNK4Luau6detail14DenseHashTableINSt7__cxx1112basic_stringIcSt11char_traitsIcESaIcEEES7_S7_NS0_16ItemInterfaceSetIS7_EESt4hashIS7_ESt8equal_toIS7_EE4findERKS7_(ptr noundef nonnull align 8 dereferenceable(64) %4, ptr noundef nonnull align 8 dereferenceable(32) %1)
  %.not7.not.not.not.not = icmp ne ptr %5, null
  br i1 %.not7.not.not.not.not, label %8, label %6

6:                                                ; preds = %3
  %7 = load ptr, ptr %.058, align 8, !tbaa !94
  %.not.not = icmp eq ptr %7, null
  br i1 %.not.not, label %8, label %3, !llvm.loop !163

8:                                                ; preds = %3, %6
  ret i1 %.not7.not.not.not.not
}